; ModuleID = 'source-C-CXX/53/1046.c'
source_filename = "source-C-CXX/53/1046.c"
target datalayout = "e-m:e-p270:32:32-p271:32:32-p272:64:64-i64:64-f80:128-n8:16:32:64-S128"
target triple = "x86_64-pc-linux-gnu"

@.str = private unnamed_addr constant [5 x i8] c"%d%d\00", align 1
@.str.1 = private unnamed_addr constant [4 x i8] c"%d\0A\00", align 1

; Function Attrs: nofree nounwind sspstrong uwtable
define dso_local i32 @main() local_unnamed_addr #0 {
  %1 = alloca i32, align 4
  %2 = alloca i32, align 4
  %3 = bitcast i32* %1 to i8*
  call void @llvm.lifetime.start.p0i8(i64 4, i8* nonnull %3) #4
  %4 = bitcast i32* %2 to i8*
  call void @llvm.lifetime.start.p0i8(i64 4, i8* nonnull %4) #4
  %5 = call i32 (i8*, ...) @__isoc99_scanf(i8* getelementptr inbounds ([5 x i8], [5 x i8]* @.str, i64 0, i64 0), i32* nonnull %1, i32* nonnull %2)
  %6 = load i32, i32* %1, align 4, !tbaa !5
  %7 = load i32, i32* %2, align 4, !tbaa !5
  %8 = icmp slt i32 %6, 1
  br i1 %8, label %26, label %9

9:                                                ; preds = %0, %24
  %10 = phi i32 [ %25, %24 ], [ 1, %0 ]
  br label %11

11:                                               ; preds = %17, %9
  %12 = phi i32 [ %10, %9 ], [ %19, %17 ]
  %13 = phi i32 [ 1, %9 ], [ %20, %17 ]
  %14 = srem i32 %12, %6
  %15 = sdiv i32 %12, %6
  %16 = icmp eq i32 %14, %7
  br i1 %16, label %17, label %24

17:                                               ; preds = %11
  %18 = add i32 %7, %15
  %19 = sub i32 %12, %18
  %20 = add nuw i32 %13, 1
  %21 = icmp eq i32 %13, %6
  br i1 %21, label %22, label %11, !llvm.loop !9

22:                                               ; preds = %17
  %23 = icmp sgt i32 %19, 0
  br i1 %23, label %26, label %24

24:                                               ; preds = %11, %22
  %25 = add nuw nsw i32 %10, 1
  br label %9

26:                                               ; preds = %22, %0
  %27 = phi i32 [ 1, %0 ], [ %10, %22 ]
  %28 = call i32 (i8*, ...) @printf(i8* nonnull dereferenceable(1) getelementptr inbounds ([4 x i8], [4 x i8]* @.str.1, i64 0, i64 0), i32 %27)
  call void @llvm.lifetime.end.p0i8(i64 4, i8* nonnull %4) #4
  call void @llvm.lifetime.end.p0i8(i64 4, i8* nonnull %3) #4
  ret i32 0
}

; Function Attrs: argmemonly mustprogress nofree nosync nounwind willreturn
declare void @llvm.lifetime.start.p0i8(i64 immarg, i8* nocapture) #1

; Function Attrs: nofree nounwind
declare noundef i32 @__isoc99_scanf(i8* nocapture noundef readonly, ...) local_unnamed_addr #2

; Function Attrs: nofree nounwind
declare noundef i32 @printf(i8* nocapture noundef readonly, ...) local_unnamed_addr #2

; Function Attrs: nofree norecurse nosync nounwind readnone sspstrong uwtable
define dso_local i32 @divide_apple(i32 %0, i32 %1) local_unnamed_addr #3 {
  %3 = icmp slt i32 %0, 1
  br i1 %3, label %19, label %4

4:                                                ; preds = %2, %21
  %5 = phi i32 [ %22, %21 ], [ 1, %2 ]
  br label %6

6:                                                ; preds = %4, %12
  %7 = phi i32 [ %5, %4 ], [ %14, %12 ]
  %8 = phi i32 [ 1, %4 ], [ %15, %12 ]
  %9 = srem i32 %7, %0
  %10 = sdiv i32 %7, %0
  %11 = icmp eq i32 %9, %1
  br i1 %11, label %12, label %21

12:                                               ; preds = %6
  %13 = add i32 %10, %1
  %14 = sub i32 %7, %13
  %15 = add nuw i32 %8, 1
  %16 = icmp eq i32 %8, %0
  br i1 %16, label %17, label %6, !llvm.loop !9

17:                                               ; preds = %12
  %18 = icmp sgt i32 %14, 0
  br i1 %18, label %19, label %21

19:                                               ; preds = %17, %2
  %20 = phi i32 [ 1, %2 ], [ %5, %17 ]
  ret i32 %20

21:                                               ; preds = %6, %17
  %22 = add nuw nsw i32 %5, 1
  br label %4
}

; Function Attrs: argmemonly mustprogress nofree nosync nounwind willreturn
declare void @llvm.lifetime.end.p0i8(i64 immarg, i8* nocapture) #1


!llvm.module.flags = !{!0, !1, !2, !3}
!llvm.ident = !{!4}

!0 = !{i32 1, !"wchar_size", i32 4}
!1 = !{i32 7, !"PIC Level", i32 2}
!2 = !{i32 7, !"PIE Level", i32 2}
!3 = !{i32 7, !"uwtable", i32 1}
!4 = !{!"clang version 13.0.0"}
!5 = !{!6, !6, i64 0}
!6 = !{!"int", !7, i64 0}
!7 = !{!"omnipotent char", !8, i64 0}
!8 = !{!"Simple C/C++ TBAA"}
!9 = distinct !{!9, !10}
!10 = !{!"llvm.loop.mustprogress"}
